(lp0
S'poi'
p1
aS'salary'
p2
aS'salary_to_avg'
p3
aS'deferral_payments'
p4
aS'total_payments'
p5
aS'loan_advances'
p6
aS'bonus'
p7
aS'restricted_stock_deferred'
p8
aS'exercised_stock_options'
p9
aS'from_poi_to_this_person'
p10
aS'from_this_person_to_poi'
p11
a.