(lp0
S'poi'
p1
aS'bonus'
p2
aS'salary'
p3
aS'deferral_payments'
p4
aS'total_payments'
p5
aS'restricted_stock_deferred'
p6
aS'exercised_stock_options'
p7
aS'from_poi_to_this_person'
p8
aS'from_this_person_to_poi'
p9
a.